target datalayout = "e-m:e-p270:32:32-p271:32:32-p272:64:64-i64:64-i128:128-f80:128-n8:16:32:64-S128"
target triple = "x86_64-unknown-linux-gnu"

%struct.QIOChannelTLS = type { %struct.QIOChannel, ptr, ptr, i32, i32 }
%struct.QIOChannel = type { %struct.Object, i32, ptr, ptr, ptr, ptr, ptr, i8 }
%struct.Object = type { ptr, ptr, ptr, i32, ptr }
%struct.QIOChannelTLSSource = type { %struct._GSource, ptr }
%struct._GSource = type { ptr, ptr, ptr, i32, ptr, i32, i32, i32, ptr, ptr, ptr, ptr, ptr }

; Function Attrs: nounwind sspstrong uwtable
define internal i32 @qio_channel_tls_source_check(ptr noundef %source) #0 {
entry:
  %source.addr = alloca ptr, align 8
  %tsource = alloca ptr, align 8
  store ptr %source, ptr %source.addr, align 8
  %0 = load ptr, ptr %source.addr, align 8
  store ptr %0, ptr %tsource, align 8
  %1 = load ptr, ptr %tsource, align 8
  %tioc = getelementptr inbounds %struct.QIOChannelTLSSource, ptr %1, i32 0, i32 1
  %2 = load ptr, ptr %tioc, align 8
  %session = getelementptr inbounds %struct.QIOChannelTLS, ptr %2, i32 0, i32 2
  %3 = load ptr, ptr %session, align 8
  %call = call i64 @qcrypto_tls_session_check_pending(ptr noundef %3)
  %cmp = icmp ugt i64 %call, 0
  %conv = zext i1 %cmp to i32
  ret i32 %conv
}