; Function Attrs: nounwind sspstrong uwtable
define internal range(i32 0, 2) i32 @qio_channel_tls_source_check(ptr noundef readonly captures(none) %source) #0 {
entry:
  %tioc = getelementptr inbounds nuw i8, ptr %source, i64 96
  %0 = load ptr, ptr %tioc, align 8
  %session = getelementptr inbounds nuw i8, ptr %0, i64 104
  %1 = load ptr, ptr %session, align 8
  %call = tail call i64 @qcrypto_tls_session_check_pending(ptr noundef %1) #8
  %cmp = icmp ne i64 %call, 0
  %conv = zext i1 %cmp to i32
  ret i32 %conv
}